; Function Attrs: nounwind uwtable
define ptr @Gia_ManIsoCanonicize(ptr noundef %0, i32 noundef %1) local_unnamed_addr #8 {
  %3 = getelementptr i8, ptr %0, i64 64
  %.val21 = load ptr, ptr %3, align 8, !tbaa !52
  %4 = getelementptr i8, ptr %.val21, i64 4
  %.val21.val = load i32, ptr %4, align 4, !tbaa !37
  %5 = icmp eq i32 %.val21.val, 0
  br i1 %5, label %6, label %8

6:                                                ; preds = %2
  %7 = tail call ptr @Gia_ManDup(ptr noundef nonnull %0) #26
  br label %68

8:                                                ; preds = %2
  %9 = tail call ptr @Gia_IsoDeriveEquivPos(ptr noundef nonnull %0, i32 noundef 0, i32 noundef %1)
  %10 = icmp eq ptr %9, null
  br i1 %10, label %Vec_VecFreeP.exit, label %11

11:                                               ; preds = %8
  %12 = getelementptr i8, ptr %9, i64 4
  %.val11.i.i = load i32, ptr %12, align 4, !tbaa !128
  %13 = icmp sgt i32 %.val11.i.i, 0
  %14 = getelementptr i8, ptr %9, i64 8
  %.val8.i.i = load ptr, ptr %14, align 8, !tbaa !74
  br i1 %13, label %.lr.ph.i.i, label %.critedge.i.i

.lr.ph.i.i:                                       ; preds = %11
  %15 = zext nneg i32 %.val11.i.i to i64
  br label %16

16:                                               ; preds = %23, %.lr.ph.i.i
  %indvars.iv.i.i = phi i64 [ 0, %.lr.ph.i.i ], [ %indvars.iv.next.i.i, %23 ]
  %17 = getelementptr inbounds nuw ptr, ptr %.val8.i.i, i64 %indvars.iv.i.i
  %18 = load ptr, ptr %17, align 8, !tbaa !74
  %.not.i.i = icmp eq ptr %18, null
  br i1 %.not.i.i, label %23, label %19

19:                                               ; preds = %16
  %20 = getelementptr inbounds nuw i8, ptr %18, i64 8
  %21 = load ptr, ptr %20, align 8, !tbaa !72
  %.not.i.i.i = icmp eq ptr %21, null
  br i1 %.not.i.i.i, label %Vec_PtrFree.exit.i.i, label %22

22:                                               ; preds = %19
  tail call void @free(ptr noundef nonnull %21) #26
  br label %Vec_PtrFree.exit.i.i

Vec_PtrFree.exit.i.i:                             ; preds = %22, %19
  tail call void @free(ptr noundef nonnull %18) #26
  br label %23

23:                                               ; preds = %Vec_PtrFree.exit.i.i, %16
  %indvars.iv.next.i.i = add nuw nsw i64 %indvars.iv.i.i, 1
  %exitcond.not = icmp eq i64 %indvars.iv.next.i.i, %15
  br i1 %exitcond.not, label %.critedge.i.i.thread, label %16, !llvm.loop !129

.critedge.i.i:                                    ; preds = %11
  %.not.i9.i.i = icmp eq ptr %.val8.i.i, null
  br i1 %.not.i9.i.i, label %Vec_VecFree.exit.i, label %.critedge.i.i.thread

.critedge.i.i.thread:                             ; preds = %23, %.critedge.i.i
  tail call void @free(ptr noundef nonnull %.val8.i.i) #26
  br label %Vec_VecFree.exit.i

Vec_VecFree.exit.i:                               ; preds = %.critedge.i.i.thread, %.critedge.i.i
  tail call void @free(ptr noundef nonnull %9) #26
  br label %Vec_VecFreeP.exit

Vec_VecFreeP.exit:                                ; preds = %8, %Vec_VecFree.exit.i
  %.val22 = load ptr, ptr %3, align 8, !tbaa !52
  %24 = getelementptr i8, ptr %.val22, i64 4
  %.val22.val = load i32, ptr %24, align 4, !tbaa !37
  %25 = tail call noalias dereferenceable_or_null(16) ptr @malloc(i64 noundef 16) #25
  %26 = add i32 %.val22.val, -1
  %or.cond.i = icmp ult i32 %26, 15
  %spec.store.select.i = select i1 %or.cond.i, i32 16, i32 %.val22.val
  %27 = getelementptr inbounds nuw i8, ptr %25, i64 4
  store i32 0, ptr %27, align 4, !tbaa !37
  store i32 %spec.store.select.i, ptr %25, align 8, !tbaa !38
  %.not.i = icmp eq i32 %spec.store.select.i, 0
  br i1 %.not.i, label %Vec_IntAlloc.exit, label %28

28:                                               ; preds = %Vec_VecFreeP.exit
  %29 = sext i32 %spec.store.select.i to i64
  %30 = shl nsw i64 %29, 2
  %31 = tail call noalias ptr @malloc(i64 noundef %30) #25
  br label %Vec_IntAlloc.exit

Vec_IntAlloc.exit:                                ; preds = %Vec_VecFreeP.exit, %28
  %32 = phi ptr [ %31, %28 ], [ null, %Vec_VecFreeP.exit ]
  %33 = getelementptr inbounds nuw i8, ptr %25, i64 8
  store ptr %32, ptr %33, align 8, !tbaa !39
  %34 = getelementptr inbounds nuw i8, ptr %0, i64 24
  %35 = load i32, ptr %34, align 8, !tbaa !14
  %36 = getelementptr inbounds nuw i8, ptr %0, i64 72
  %37 = load ptr, ptr %36, align 8, !tbaa !55
  %38 = getelementptr i8, ptr %37, i64 4
  %.val.i = load i32, ptr %38, align 4, !tbaa !37
  %39 = add i32 %.val.i, %.val22.val
  %40 = xor i32 %39, -1
  %41 = add i32 %35, %40
  %42 = tail call noalias dereferenceable_or_null(16) ptr @malloc(i64 noundef 16) #25
  %43 = add i32 %41, -1
  %or.cond.i23 = icmp ult i32 %43, 15
  %spec.store.select.i24 = select i1 %or.cond.i23, i32 16, i32 %41
  %44 = getelementptr inbounds nuw i8, ptr %42, i64 4
  store i32 0, ptr %44, align 4, !tbaa !37
  store i32 %spec.store.select.i24, ptr %42, align 8, !tbaa !38
  %.not.i25 = icmp eq i32 %spec.store.select.i24, 0
  br i1 %.not.i25, label %Vec_IntAlloc.exit26, label %45

45:                                               ; preds = %Vec_IntAlloc.exit
  %46 = sext i32 %spec.store.select.i24 to i64
  %47 = shl nsw i64 %46, 2
  %48 = tail call noalias ptr @malloc(i64 noundef %47) #25
  br label %Vec_IntAlloc.exit26

Vec_IntAlloc.exit26:                              ; preds = %Vec_IntAlloc.exit, %45
  %49 = phi ptr [ %48, %45 ], [ null, %Vec_IntAlloc.exit ]
  %50 = getelementptr inbounds nuw i8, ptr %42, i64 8
  store ptr %49, ptr %50, align 8, !tbaa !39
  %51 = tail call noalias dereferenceable_or_null(16) ptr @malloc(i64 noundef 16) #25
  %52 = add i32 %.val.i, -1
  %or.cond.i27 = icmp ult i32 %52, 15
  %spec.store.select.i28 = select i1 %or.cond.i27, i32 16, i32 %.val.i
  %53 = getelementptr inbounds nuw i8, ptr %51, i64 4
  store i32 0, ptr %53, align 4, !tbaa !37
  store i32 %spec.store.select.i28, ptr %51, align 8, !tbaa !38
  %.not.i29 = icmp eq i32 %spec.store.select.i28, 0
  br i1 %.not.i29, label %Vec_IntAlloc.exit30, label %54

54:                                               ; preds = %Vec_IntAlloc.exit26
  %55 = sext i32 %spec.store.select.i28 to i64
  %56 = shl nsw i64 %55, 2
  %57 = tail call noalias ptr @malloc(i64 noundef %56) #25
  br label %Vec_IntAlloc.exit30

Vec_IntAlloc.exit30:                              ; preds = %Vec_IntAlloc.exit26, %54
  %58 = phi ptr [ %57, %54 ], [ null, %Vec_IntAlloc.exit26 ]
  %59 = getelementptr inbounds nuw i8, ptr %51, i64 8
  store ptr %58, ptr %59, align 8, !tbaa !39
  tail call void @Gia_ManFindCaninicalOrder(ptr noundef nonnull %0, ptr noundef nonnull %25, ptr noundef nonnull %42, ptr noundef nonnull %51, ptr noundef null)
  %60 = getelementptr i8, ptr %0, i64 16
  %.val = load i32, ptr %60, align 8, !tbaa !73
  %61 = tail call ptr @Gia_ManDupFromVecs(ptr noundef nonnull %0, ptr noundef nonnull %25, ptr noundef nonnull %42, ptr noundef nonnull %51, i32 noundef %.val) #26
  %62 = load ptr, ptr %33, align 8, !tbaa !39
  %.not.i31 = icmp eq ptr %62, null
  br i1 %.not.i31, label %Vec_IntFree.exit, label %63

63:                                               ; preds = %Vec_IntAlloc.exit30
  tail call void @free(ptr noundef nonnull %62) #26
  br label %Vec_IntFree.exit

Vec_IntFree.exit:                                 ; preds = %Vec_IntAlloc.exit30, %63
  tail call void @free(ptr noundef nonnull %25) #26
  %64 = load ptr, ptr %50, align 8, !tbaa !39
  %.not.i32 = icmp eq ptr %64, null
  br i1 %.not.i32, label %Vec_IntFree.exit33, label %65

65:                                               ; preds = %Vec_IntFree.exit
  tail call void @free(ptr noundef nonnull %64) #26
  br label %Vec_IntFree.exit33

Vec_IntFree.exit33:                               ; preds = %Vec_IntFree.exit, %65
  tail call void @free(ptr noundef nonnull %42) #26
  %66 = load ptr, ptr %59, align 8, !tbaa !39
  %.not.i34 = icmp eq ptr %66, null
  br i1 %.not.i34, label %Vec_IntFree.exit35, label %67

67:                                               ; preds = %Vec_IntFree.exit33
  tail call void @free(ptr noundef nonnull %66) #26
  br label %Vec_IntFree.exit35

Vec_IntFree.exit35:                               ; preds = %Vec_IntFree.exit33, %67
  tail call void @free(ptr noundef nonnull %51) #26
  br label %68

68:                                               ; preds = %Vec_IntFree.exit35, %6
  %.0 = phi ptr [ %7, %6 ], [ %61, %Vec_IntFree.exit35 ]
  ret ptr %.0
}